; Function Attrs: nounwind uwtable
define void @_ZTvn16_n24_N5osgeo4proj3crs18DerivedVerticalCRSD1Ev(ptr noundef %0) unnamed_addr #4 align 2 {
  %2 = getelementptr inbounds i8, ptr %0, i64 -16
  %3 = load ptr, ptr %2, align 8
  %4 = getelementptr inbounds i8, ptr %3, i64 -24
  %5 = load i64, ptr %4, align 8
  %6 = getelementptr inbounds i8, ptr %2, i64 %5
  tail call void @_ZN5osgeo4proj3crs18DerivedVerticalCRSD2Ev(ptr noundef nonnull align 8 dereferenceable(112) %6, ptr noundef nonnull @_ZTTN5osgeo4proj3crs18DerivedVerticalCRSE) #37
  %7 = getelementptr inbounds i8, ptr %6, i64 40
  tail call void @_ZN5osgeo4proj3crs9SingleCRSD2Ev(ptr noundef nonnull align 8 dereferenceable(72) %7) #37
  ret void
}